--- !tapi-tbd-v2
archs:                 [ arm64_32 ]
uuids:                 [ 'arm64_32: B95BE56D-7E6A-3878-88CB-D15C7A380A53' ]
platform:              watchos
flags:                 [ flat_namespace ]
install-name:          /System/Library/PrivateFrameworks/HeartRhythmAlgorithms.framework/HeartRhythmAlgorithms
current-version:       1
compatibility-version: 1
objc-constraint:       retain_release
exports:
  - archs:                [ arm64_32 ]
    symbols:              [ _AWDHeartRhythmAnalyzerStatsReadFrom, _Coiflet_3_g0,
                            _Coiflet_3_h0, _Coiflet_4_h0,
                            __Z11fixBeatsLenRKNSt3__16vectorINS0_IfNS_9allocatorIfEEEENS1_IS3_EEEERS5_,
                            __Z17cin_classifyBeatsRKNSt3__16vectorINS0_IfNS_9allocatorIfEEEENS1_IS3_EEEERKNS0_IjNS1_IjEEEESB_RNS0_I14cin_beatType_tNS1_ISC_EEEERbf,
                            __Z19cin_ensembleAvgBeatRKNSt3__16vectorIfNS_9allocatorIfEEEERKNS0_IjNS1_IjEEEERNS0_IS3_NS1_IS3_EEEEf,
                            __Z19cin_ensembleAvgBeatRKNSt3__16vectorIfNS_9allocatorIfEEEERKNS0_IjNS1_IjEEEES9_RNS0_IS3_NS1_IS3_EEEEf,
                            __Z8fill_vecRNSt3__16vectorIfNS_9allocatorIfEEEEfff,
                            __ZN10CinAppAlgs12PoincareArea17ProcessTachogramsERKNSt3__16vectorIjNS1_9allocatorIjEEEERKNS2_IbNS3_IbEEEEf,
                            __ZN10CinAppAlgs12PoincareAreaC1Ev,
                            __ZN10CinAppAlgs12PoincareAreaC2Ev,
                            __ZN10CinAppAlgs12PoincareAreaD1Ev,
                            __ZN10CinAppAlgs12PoincareAreaD2Ev,
                            __ZN10CinAppAlgs5PWave13cin_findPPeakEfNS_19cin_psegment_mode_eE,
                            __ZN10CinAppAlgs5PWave15cin_detectPWaveERKNSt3__16vectorIfNS1_9allocatorIfEEEERKNS2_IjNS3_IjEEEERNS2_I14cin_beatType_tNS3_ISC_EEEEf,
                            __ZN10CinAppAlgs5PWave15findR_WithAngleERNSt3__16vectorIfNS1_9allocatorIfEEEEfj,
                            __ZN10CinAppAlgs5PWave15signalAboveLineERKNSt3__16vectorIfNS1_9allocatorIfEEEEfRbRfRiS9_S9_,
                            __ZN10CinAppAlgs5PWave17cin_possiblePwaveEv,
                            __ZN10CinAppAlgs5PWave18cin_segmentPRegionERKNSt3__16vectorIfNS1_9allocatorIfEEEERKNS2_IjNS3_IjEEEEf,
                            __ZN10CinAppAlgs5PWave33cin_getRatioOfCorrelatedBeatPairsERNSt3__16vectorIfNS1_9allocatorIfEEEERKNS2_IS5_NS3_IS5_EEEERNS2_I14cin_beatType_tNS3_ISB_EEEE,
                            __ZN10CinAppAlgs5PWaveC1Ev,
                            __ZN10CinAppAlgs5PWaveC2Ev,
                            __ZN10CinAppAlgs5PWaveD1Ev,
                            __ZN10CinAppAlgs5PWaveD2Ev,
                            __ZN10CinAppAlgs6Rhythm13maxReadableHRE,
                            __ZN10CinAppAlgs6Rhythm13minReadableHRE,
                            __ZN10CinAppAlgs6Rhythm14PwaveAbsentThrE,
                            __ZN10CinAppAlgs6Rhythm14maxHRsupportedE,
                            __ZN10CinAppAlgs6Rhythm14minHRsupportedE,
                            __ZN10CinAppAlgs6Rhythm15PwavePresentThrE,
                            __ZN10CinAppAlgs6Rhythm15minQRSAmplitudeE,
                            __ZN10CinAppAlgs6Rhythm16maxAbnormalBeatsE,
                            __ZN10CinAppAlgs6Rhythm16minGoodData_secsE,
                            __ZN10CinAppAlgs6Rhythm17MNNratioThresholdE,
                            __ZN10CinAppAlgs6Rhythm17cin_afibDetectionERKNS_17cin_poincareStatsEf,
                            __ZN10CinAppAlgs6Rhythm17maxNSRHRsupportedE,
                            __ZN10CinAppAlgs6Rhythm18MNN_withCThresholdE,
                            __ZN10CinAppAlgs6Rhythm18PwaveProbAbsentThrE,
                            __ZN10CinAppAlgs6Rhythm18cin_classifyRhythmERKNSt3__16vectorIfNS1_9allocatorIfEEEERKNS2_IjNS3_IjEEEERNS2_IS5_NS3_IS5_EEEERNS2_I14cin_beatType_tNS3_ISF_EEEEffbPhjPNS_15CinAppAlgsAWD_tE,
                            __ZN10CinAppAlgs6Rhythm19PwaveProbPresentThrE,
                            __ZN10CinAppAlgs6Rhythm19cin_beatCorrelationERKNSt3__16vectorIfNS1_9allocatorIfEEEERNS2_IS5_NS3_IS5_EEEERNS2_I14cin_beatType_tNS3_ISB_EEEE,
                            __ZN10CinAppAlgs6Rhythm19maxNSRAbnormalBeatsE,
                            __ZN10CinAppAlgs6Rhythm20lowerThresholdEnsAmpE,
                            __ZN10CinAppAlgs6Rhythm20upperThresholdEnsAmpE,
                            __ZN10CinAppAlgs6Rhythm21maxPoincareAreaForNSRE,
                            __ZN10CinAppAlgs6Rhythm22maxPoincareAreaforAfibE,
                            __ZN10CinAppAlgs6Rhythm23lowerBoundCorrThresholdE,
                            __ZN10CinAppAlgs6Rhythm23minNonArtifactBeatRatioE,
                            __ZN10CinAppAlgs6Rhythm23sMaxPwaveThresholdForAFE,
                            __ZN10CinAppAlgs6Rhythm23upperBoundCorrThresholdE,
                            __ZN10CinAppAlgs6Rhythm25lowestPoincareAreaforAfibE,
                            __ZN10CinAppAlgs6Rhythm27sAutoCorrDecayThreshold_pctE,
                            __ZN10CinAppAlgs6Rhythm27sPoincareAreaThreshold_bpm2E,
                            __ZN10CinAppAlgs6Rhythm33poincareAreaScaled_withCThresholdE,
                            __ZN10CinAppAlgs6Rhythm37minContinuousNumberOfNonArtifactBeatsE,
                            __ZN10CinAppAlgs6Rhythm37sNearestNeighborDistanceThreshold_bpmE,
                            __ZN10CinAppAlgs6RhythmC1Ev,
                            __ZN10CinAppAlgs6RhythmC2Ev,
                            __ZN10CinAppAlgs6RhythmD1Ev,
                            __ZN10CinAppAlgs6RhythmD2Ev,
                            __ZN10CinAppAlgs7CinAlgs14SetBeatsWriterENSt3__18functionIFvRKNS_13cinEnsAvgDataEEEE,
                            __ZN10CinAppAlgs7CinAlgs14processSessionEPKNS_15CinAppAlgsInputERNS_16CinAppAlgsOutputE,
                            __ZN10CinAppAlgs7CinAlgs17getAppAlgsVersionEv,
                            __ZN10CinAppAlgs7CinAlgs18SetFlagsDataWriterENSt3__18functionIFvRKNS_12cinFlagsDataEEEE,
                            __ZN10CinAppAlgs7CinAlgs22SetPWaveEnsembleWriterENSt3__18functionIFvRKNS_13cinEnsAvgDataEEEE,
                            __ZN10CinAppAlgs7CinAlgs24SetEnsembleAverageWriterENSt3__18functionIFvRKNS_13cinEnsAvgDataEEEE,
                            __ZN10CinAppAlgs7CinAlgsC1EPKNS_16CinAppAlgsConfigE,
                            __ZN10CinAppAlgs7CinAlgsC2EPKNS_16CinAppAlgsConfigE,
                            __ZN10CinAppAlgs7CinAlgsD1Ev,
                            __ZN10CinAppAlgs7CinAlgsD2Ev,
                            __ZN11HRAAntimony8Antimony11MIN_NUM_HRSE,
                            __ZN11HRAAntimony8Antimony17ProcessTachogramsERKNSt3__16vectorIN12HRATachogram9TachogramENS1_9allocatorIS4_EEEE,
                            __ZN11HRAAntimony8Antimony18_ComputeScaledAreaEffff,
                            __ZN11HRAAntimony8Antimony21NN_DISTANCE_THRESHOLDE,
                            __ZN11HRAAntimony8Antimony23POINCARE_AREA_THRESHOLDE,
                            __ZN11HRAAntimony8Antimony25AUTO_CORR_DECAY_THRESHOLDE,
                            __ZN11HRAAntimony8Antimony26SD_RATIO_SCALING_STEEPNESSE,
                            __ZN11HRAAntimony8Antimony26SD_RATIO_SCALING_THRESHOLDE,
                            __ZN11HRAAntimony8Antimony28DIST_RATIO_SCALED_AREA_SLOPEE,
                            __ZN11HRAAntimony8Antimony29DIST_RATIO_SCALED_AREA_OFFSETE,
                            __ZN11HRAAntimony8Antimony6MIN_SDE,
                            _cin_end_Pwin_margin, _cin_max_PR_interval,
                            _cin_max_p_width_normal, _cin_max_p_width_relaxed,
                            _cin_minLeftAmpOverRight_normal,
                            _cin_minLeftAmpOverRight_relaxed, _cin_min_p_width,
                            _cin_min_prominence_peak, _cin_p_half_width,
                            _cin_p_wave_butter2_lpf,
                            _cin_p_wave_butter2_lpf_gain,
                            _cin_p_wave_butter2_lpf_order,
                            _cin_p_wave_butter4_bpf,
                            _cin_p_wave_butter4_bpf_gain,
                            _cin_p_wave_butter4_bpf_order,
                            _cin_p_wave_error_threshold_normal,
                            _cin_p_wave_error_threshold_relaxed,
                            _cin_p_window_ratio, _cin_pcaCoef0, _cin_pcaCoef1,
                            _cin_pcaCoef2, _cin_pcaCoef3, _cin_pcaMu,
                            _cin_postprocessing_artifacts, _cin_qdaCovInv0,
                            _cin_qdaCovInv1,
                            _cin_qdaEctopicBeatLogLikelihoodBias,
                            _cin_qdaEctopicBeatScoreBias, _cin_qdaMu0, _cin_qdaMu1,
                            _cin_qdaNormalBeatLogLikelihoodBias,
                            _cin_qdaNormalBeatScoreBias, _cin_qrs_min_width,
                            _cin_qrs_search_window_after,
                            _cin_qrs_search_window_before,
                            _erb_RTConfusion_delete, _erb_RTConfusion_new,
                            _erb_RTConfusion_process, _erb_RTConfusion_reset,
                            _erb_denoiseFE_delete, _erb_denoiseFE_new,
                            _erb_denoiseFE_process, _erb_denoiseFE_reset,
                            _erb_denoiseWvlt_delete, _erb_denoiseWvlt_new,
                            _erb_denoiseWvlt_process, _erb_denoiseWvlt_reset,
                            _erb_denoise_delete, _erb_denoise_new,
                            _erb_denoise_process, _erb_denoise_reset,
                            _erb_detrend_delete, _erb_detrend_new,
                            _erb_detrend_process, _erb_detrend_reset,
                            _erb_filtFilt_delete, _erb_filtFilt_new,
                            _erb_filtFilt_newPrivate,
                            _erb_filtFilt_newWithInitState,
                            _erb_filtFilt_process, _erb_filtFilt_reset,
                            _erb_iirSos_delete, _erb_iirSos_getDemeanOffset,
                            _erb_iirSos_new, _erb_iirSos_process,
                            _erb_iirSos_reset, _erb_iirSos_setDemeanOffset,
                            _erb_iirSos_updateCoef, _erb_irdwt,
                            _erb_medFilt_delete, _erb_medFilt_getMAD,
                            _erb_medFilt_new, _erb_medFilt_process,
                            _erb_medFilt_reset, _erb_medFilter_isPrimed,
                            _erb_qrsDetect_delete, _erb_qrsDetect_new,
                            _erb_qrsDetect_process, _erb_qrsDetect_reset,
                            _erb_rdwt, _findPeaks, _firFilt_delete, _firFilt_new,
                            _firFilt_process, _firFilt_reset, _firFilt_setCoeffs,
                            _firFilt_setState, _hra_logToFile, _hra_set_log_handle,
                            _waveform_pad ]
    objc-classes:         [ _AWDHeartRhythmAnalyzerStats, _HRAAntimonyAnalyzer,
                            _HRAAntimonyResult,
                            _HRAAntimonyTachogramClassification, _HRALogHandler,
                            _HRAPreferences, _HRAWaveformProcessor,
                            _HRAWaveformResult ]
    objc-ivars:           [ _AWDHeartRhythmAnalyzerStats._beatCorrelation,
                            _AWDHeartRhythmAnalyzerStats._endReason,
                            _AWDHeartRhythmAnalyzerStats._ensembleAverageAmplitude,
                            _AWDHeartRhythmAnalyzerStats._has,
                            _AWDHeartRhythmAnalyzerStats._lenCleanData,
                            _AWDHeartRhythmAnalyzerStats._numArtifactBeats,
                            _AWDHeartRhythmAnalyzerStats._pWaveConfidence,
                            _AWDHeartRhythmAnalyzerStats._poinCareArea,
                            _AWDHeartRhythmAnalyzerStats._qrsAmplitude,
                            _AWDHeartRhythmAnalyzerStats._rhythmClassification,
                            _AWDHeartRhythmAnalyzerStats._sessionDuration,
                            _AWDHeartRhythmAnalyzerStats._timestamp ]
    weak-def-symbols:     [ __ZTINSt3__110__function6__baseIFbffEEE,
                            __ZTINSt3__110__function6__baseIFffEEE,
                            __ZTINSt3__110__function6__baseIFvRKN10CinAppAlgs12cinFlagsDataEEEE,
                            __ZTINSt3__110__function6__baseIFvRKN10CinAppAlgs13cinEnsAvgDataEEEE,
                            __ZTINSt3__117bad_function_callE,
                            __ZTSNSt3__110__function6__baseIFbffEEE,
                            __ZTSNSt3__110__function6__baseIFffEEE,
                            __ZTSNSt3__110__function6__baseIFvRKN10CinAppAlgs12cinFlagsDataEEEE,
                            __ZTSNSt3__110__function6__baseIFvRKN10CinAppAlgs13cinEnsAvgDataEEEE,
                            __ZTSNSt3__117bad_function_callE ]
undefineds:
  - archs:                [ arm64_32 ]
    symbols:              [ _AWDPostMetric, _MGGetBoolAnswer,
                            _NSFileProtectionCompleteUnlessOpen,
                            _NSFileProtectionKey, _NSLog,
                            _PBDataWriterWriteInt32Field,
                            _PBDataWriterWriteUint32Field,
                            _PBDataWriterWriteUint64Field,
                            _PBReaderSkipValueWithTag, __NSConcreteStackBlock,
                            __Unwind_Resume,
                            __ZNKSt3__120__vector_base_commonILb1EE20__throw_length_errorEv,
                            __ZNKSt3__120__vector_base_commonILb1EE20__throw_out_of_rangeEv,
                            __ZNKSt9exception4whatEv, __ZNSt11logic_errorC2EPKc,
                            __ZNSt12length_errorD1Ev,
                            __ZNSt3__112basic_stringIcNS_11char_traitsIcEENS_9allocatorIcEEED1Ev,
                            __ZNSt3__16__sortIRNS_6__lessIffEEPfEEvT0_S5_T_,
                            __ZNSt9exceptionD2Ev, __ZSt9terminatev,
                            __ZTISt9bad_alloc, __ZTISt9exception,
                            __ZTVN10__cxxabiv117__class_type_infoE,
                            __ZTVN10__cxxabiv120__si_class_type_infoE,
                            __ZTVSt12length_error,
                            ___CFConstantStringClassReference, ___assert_rtn,
                            ___cxa_allocate_exception, ___cxa_atexit,
                            ___cxa_begin_catch, ___cxa_end_catch,
                            ___cxa_free_exception, ___cxa_guard_acquire,
                            ___cxa_guard_release, ___cxa_throw, ___error,
                            ___gxx_personality_v0, ___memcpy_chk, ___memset_chk,
                            ___stack_chk_fail, ___stack_chk_guard,
                            __objc_empty_cache, __os_log_debug_impl,
                            __os_log_default, __os_log_impl, _atan2f, _bzero, _calloc,
                            _close, _dispatch_once, _expf, _free, _log10f, _logf, _malloc,
                            _memcpy, _memmove, _memset, _memset_pattern16, _nanf,
                            _objc_alloc, _objc_autoreleaseReturnValue,
                            _objc_copyWeak, _objc_destroyWeak,
                            _objc_enumerationMutation, _objc_initWeak,
                            _objc_loadWeakRetained, _objc_moveWeak, _objc_msgSend,
                            _objc_msgSendSuper2, _objc_opt_class,
                            _objc_opt_isKindOfClass, _objc_opt_new,
                            _objc_opt_respondsToSelector, _objc_release,
                            _objc_retain, _objc_retainAutorelease,
                            _objc_retainAutoreleaseReturnValue,
                            _objc_retainAutoreleasedReturnValue,
                            _objc_storeStrong, _objc_storeWeak, _open,
                            _os_log_create, _os_log_type_enabled, _strerror, _strlen,
                            _uuid_unparse, _vDSP_conv, _vDSP_create_fftsetup,
                            _vDSP_destroy_fftsetup, _vDSP_fft_zrip, _vDSP_maxv,
                            _vDSP_maxvi, _vDSP_meanv, _vDSP_vsort, _vDSP_vsorti,
                            _vsnprintf, _write, dyld_stub_binder ]
    objc-classes:         [ _MCProfileConnection, _NSData, _NSDate, _NSDateFormatter,
                            _NSDictionary, _NSFileManager, _NSLocale,
                            _NSMutableArray, _NSMutableDictionary, _NSMutableSet,
                            _NSNumber, _NSObject, _NSString, _NSTimeZone, _NSUUID,
                            _NSUserDefaults, _PBCodable ]
    objc-ivars:           [ _PBDataReader._bytes, _PBDataReader._error,
                            _PBDataReader._length, _PBDataReader._pos ]
    weak-def-symbols:     [ __ZTISt12length_error, __ZdaPv, __ZdlPv, __Znam, __Znwm ]
...
